target datalayout = "e-m:e-p270:32:32-p271:32:32-p272:64:64-i64:64-i128:128-f80:128-n8:16:32:64-S128"
target triple = "x86_64-pc-linux-gnu"

%struct.StringInfoData = type { ptr, i32, i32, i32 }

@.str = private unnamed_addr constant [44 x i8] c"invalid string enlargement request size: %d\00", align 1
@.str.1 = private unnamed_addr constant [13 x i8] c"stringinfo.c\00", align 1
@__func__.enlargeStringInfo = private unnamed_addr constant [18 x i8] c"enlargeStringInfo\00", align 1
@.str.2 = private unnamed_addr constant [57 x i8] c"string buffer exceeds maximum allowed length (%zu bytes)\00", align 1
@.str.3 = private unnamed_addr constant [67 x i8] c"Cannot enlarge string buffer containing %d bytes by %d more bytes.\00", align 1

; Function Attrs: nounwind uwtable
define dso_local void @enlargeStringInfo(ptr noundef %0, i32 noundef %1) #0 {
  %3 = alloca ptr, align 8
  %4 = alloca i32, align 4
  %5 = alloca i32, align 4
  %6 = alloca i32, align 4
  store ptr %0, ptr %3, align 8
  store i32 %1, ptr %4, align 4
  call void @llvm.lifetime.start.p0(i64 4, ptr %5) #10
  %7 = load i32, ptr %4, align 4
  %8 = icmp slt i32 %7, 0
  br i1 %8, label %9, label %21

9:                                                ; preds = %2
  br label %10

10:                                               ; preds = %9
  br i1 true, label %11, label %13

11:                                               ; preds = %10
  %12 = call zeroext i1 @errstart_cold(i32 noundef 21, ptr noundef null) #12
  br i1 %12, label %15, label %18

13:                                               ; preds = %10
  %14 = call zeroext i1 @errstart(i32 noundef 21, ptr noundef null)
  br i1 %14, label %15, label %18

15:                                               ; preds = %13, %11
  %16 = load i32, ptr %4, align 4
  %17 = call i32 (ptr, ...) @errmsg_internal(ptr noundef @.str, i32 noundef %16)
  call void @errfinish(ptr noundef @.str.1, i32 noundef 351, ptr noundef @__func__.enlargeStringInfo)
  br label %18

18:                                               ; preds = %15, %13, %11
  unreachable

19:                                               ; No predecessors!
  br label %20

20:                                               ; preds = %19
  br label %21

21:                                               ; preds = %20, %2
  %22 = load i32, ptr %4, align 4
  %23 = sext i32 %22 to i64
  %24 = load ptr, ptr %3, align 8
  %25 = getelementptr inbounds nuw %struct.StringInfoData, ptr %24, i32 0, i32 1
  %26 = load i32, ptr %25, align 8
  %27 = sext i32 %26 to i64
  %28 = sub i64 1073741823, %27
  %29 = icmp uge i64 %23, %28
  br i1 %29, label %30, label %47

30:                                               ; preds = %21
  br label %31

31:                                               ; preds = %30
  br i1 true, label %32, label %34

32:                                               ; preds = %31
  %33 = call zeroext i1 @errstart_cold(i32 noundef 21, ptr noundef null) #12
  br i1 %33, label %36, label %44

34:                                               ; preds = %31
  %35 = call zeroext i1 @errstart(i32 noundef 21, ptr noundef null)
  br i1 %35, label %36, label %44

36:                                               ; preds = %34, %32
  %37 = call i32 @errcode(i32 noundef 261)
  %38 = call i32 (ptr, ...) @errmsg(ptr noundef @.str.2, i64 noundef 1073741823)
  %39 = load ptr, ptr %3, align 8
  %40 = getelementptr inbounds nuw %struct.StringInfoData, ptr %39, i32 0, i32 1
  %41 = load i32, ptr %40, align 8
  %42 = load i32, ptr %4, align 4
  %43 = call i32 (ptr, ...) @errdetail(ptr noundef @.str.3, i32 noundef %41, i32 noundef %42)
  call void @errfinish(ptr noundef @.str.1, i32 noundef 364, ptr noundef @__func__.enlargeStringInfo)
  br label %44

44:                                               ; preds = %36, %34, %32
  unreachable

45:                                               ; No predecessors!
  br label %46

46:                                               ; preds = %45
  br label %47

47:                                               ; preds = %46, %21
  %48 = load ptr, ptr %3, align 8
  %49 = getelementptr inbounds nuw %struct.StringInfoData, ptr %48, i32 0, i32 1
  %50 = load i32, ptr %49, align 8
  %51 = add i32 %50, 1
  %52 = load i32, ptr %4, align 4
  %53 = add i32 %52, %51
  store i32 %53, ptr %4, align 4
  %54 = load i32, ptr %4, align 4
  %55 = load ptr, ptr %3, align 8
  %56 = getelementptr inbounds nuw %struct.StringInfoData, ptr %55, i32 0, i32 2
  %57 = load i32, ptr %56, align 4
  %58 = icmp sle i32 %54, %57
  br i1 %58, label %59, label %60

59:                                               ; preds = %47
  store i32 1, ptr %6, align 4
  br label %88

60:                                               ; preds = %47
  %61 = load ptr, ptr %3, align 8
  %62 = getelementptr inbounds nuw %struct.StringInfoData, ptr %61, i32 0, i32 2
  %63 = load i32, ptr %62, align 4
  %64 = mul i32 2, %63
  store i32 %64, ptr %5, align 4
  br label %65

65:                                               ; preds = %69, %60
  %66 = load i32, ptr %4, align 4
  %67 = load i32, ptr %5, align 4
  %68 = icmp sgt i32 %66, %67
  br i1 %68, label %69, label %72

69:                                               ; preds = %65
  %70 = load i32, ptr %5, align 4
  %71 = mul i32 2, %70
  store i32 %71, ptr %5, align 4
  br label %65, !llvm.loop !4

72:                                               ; preds = %65
  %73 = load i32, ptr %5, align 4
  %74 = icmp sgt i32 %73, 1073741823
  br i1 %74, label %75, label %76

75:                                               ; preds = %72
  store i32 1073741823, ptr %5, align 4
  br label %76

76:                                               ; preds = %75, %72
  %77 = load ptr, ptr %3, align 8
  %78 = getelementptr inbounds nuw %struct.StringInfoData, ptr %77, i32 0, i32 0
  %79 = load ptr, ptr %78, align 8
  %80 = load i32, ptr %5, align 4
  %81 = sext i32 %80 to i64
  %82 = call ptr @repalloc(ptr noundef %79, i64 noundef %81)
  %83 = load ptr, ptr %3, align 8
  %84 = getelementptr inbounds nuw %struct.StringInfoData, ptr %83, i32 0, i32 0
  store ptr %82, ptr %84, align 8
  %85 = load i32, ptr %5, align 4
  %86 = load ptr, ptr %3, align 8
  %87 = getelementptr inbounds nuw %struct.StringInfoData, ptr %86, i32 0, i32 2
  store i32 %85, ptr %87, align 4
  store i32 0, ptr %6, align 4
  br label %88

88:                                               ; preds = %76, %59
  call void @llvm.lifetime.end.p0(i64 4, ptr %5) #10
  %89 = load i32, ptr %6, align 4
  switch i32 %89, label %91 [
    i32 0, label %90
    i32 1, label %90
  ]

90:                                               ; preds = %88, %88
  ret void

91:                                               ; preds = %88
  unreachable
}