; Function Attrs: nounwind uwtable
define dso_local void @enlargeStringInfo(ptr noundef captures(none) %0, i32 noundef %1) local_unnamed_addr #0 {
  %3 = icmp slt i32 %1, 0
  br i1 %3, label %4, label %7

4:                                                ; preds = %2
  %5 = tail call zeroext i1 @errstart_cold(i32 noundef 21, ptr noundef null) #14
  tail call void @llvm.assume(i1 %5)
  %6 = tail call i32 (ptr, ...) @errmsg_internal(ptr noundef nonnull @.str, i32 noundef %1) #12
  tail call void @errfinish(ptr noundef nonnull @.str.1, i32 noundef 351, ptr noundef nonnull @__func__.enlargeStringInfo) #12
  unreachable

7:                                                ; preds = %2
  %8 = zext nneg i32 %1 to i64
  %9 = getelementptr inbounds nuw i8, ptr %0, i64 8
  %10 = load i32, ptr %9, align 8
  %11 = sext i32 %10 to i64
  %12 = sub nsw i64 1073741823, %11
  %.not = icmp ugt i64 %12, %8
  br i1 %.not, label %19, label %13

13:                                               ; preds = %7
  %14 = tail call zeroext i1 @errstart_cold(i32 noundef 21, ptr noundef null) #14
  tail call void @llvm.assume(i1 %14)
  %15 = tail call i32 @errcode(i32 noundef 261) #12
  %16 = tail call i32 (ptr, ...) @errmsg(ptr noundef nonnull @.str.2, i64 noundef 1073741823) #12
  %17 = load i32, ptr %9, align 8
  %18 = tail call i32 (ptr, ...) @errdetail(ptr noundef nonnull @.str.3, i32 noundef %17, i32 noundef %1) #12
  tail call void @errfinish(ptr noundef nonnull @.str.1, i32 noundef 364, ptr noundef nonnull @__func__.enlargeStringInfo) #12
  unreachable

19:                                               ; preds = %7
  %20 = add nuw i32 %1, 1
  %21 = add i32 %20, %10
  %22 = getelementptr inbounds nuw i8, ptr %0, i64 12
  %23 = load i32, ptr %22, align 4
  %.not22 = icmp sgt i32 %21, %23
  br i1 %.not22, label %.preheader, label %29

.preheader:                                       ; preds = %19, %.preheader
  %.0.in = phi i32 [ %.0, %.preheader ], [ %23, %19 ]
  %.0 = shl i32 %.0.in, 1
  %24 = icmp sgt i32 %21, %.0
  br i1 %24, label %.preheader, label %25, !llvm.loop !4

25:                                               ; preds = %.preheader
  %spec.store.select = tail call i32 @llvm.smin.i32(i32 %.0, i32 1073741823)
  %26 = load ptr, ptr %0, align 8
  %27 = sext i32 %spec.store.select to i64
  %28 = tail call ptr @repalloc(ptr noundef %26, i64 noundef %27) #12
  store ptr %28, ptr %0, align 8
  store i32 %spec.store.select, ptr %22, align 4
  br label %29

29:                                               ; preds = %19, %25
  ret void
}